; ModuleID = '49/616.cpp'
source_filename = "49/616.cpp"
target datalayout = "e-m:e-p270:32:32-p271:32:32-p272:64:64-i64:64-f80:128-n8:16:32:64-S128"
target triple = "x86_64-pc-linux-gnu"

%"class.std::ios_base::Init" = type { i8 }
%"class.std::basic_istream" = type { i32 (...)**, i64, %"class.std::basic_ios" }
%"class.std::basic_ios" = type { %"class.std::ios_base", %"class.std::basic_ostream"*, i8, i8, %"class.std::basic_streambuf"*, %"class.std::ctype"*, %"class.std::num_put"*, %"class.std::num_get"* }
%"class.std::ios_base" = type { i32 (...)**, i64, i64, i32, i32, i32, %"struct.std::ios_base::_Callback_list"*, %"struct.std::ios_base::_Words", [8 x %"struct.std::ios_base::_Words"], i32, %"struct.std::ios_base::_Words"*, %"class.std::locale" }
%"struct.std::ios_base::_Callback_list" = type { %"struct.std::ios_base::_Callback_list"*, void (i32, %"class.std::ios_base"*, i32)*, i32, i32 }
%"struct.std::ios_base::_Words" = type { i8*, i64 }
%"class.std::locale" = type { %"class.std::locale::_Impl"* }
%"class.std::locale::_Impl" = type { i32, %"class.std::locale::facet"**, i64, %"class.std::locale::facet"**, i8** }
%"class.std::locale::facet" = type <{ i32 (...)**, i32, [4 x i8] }>
%"class.std::basic_ostream" = type { i32 (...)**, %"class.std::basic_ios" }
%"class.std::basic_streambuf" = type { i32 (...)**, i8*, i8*, i8*, i8*, i8*, i8*, %"class.std::locale" }
%"class.std::ctype" = type <{ %"class.std::locale::facet.base", [4 x i8], %struct.__locale_struct*, i8, [7 x i8], i32*, i32*, i16*, i8, [256 x i8], [256 x i8], i8, [6 x i8] }>
%"class.std::locale::facet.base" = type <{ i32 (...)**, i32 }>
%struct.__locale_struct = type { [13 x %struct.__locale_data*], i16*, i32*, i32*, [13 x i8*] }
%struct.__locale_data = type opaque
%"class.std::num_put" = type { %"class.std::locale::facet.base", [4 x i8] }
%"class.std::num_get" = type { %"class.std::locale::facet.base", [4 x i8] }

@_ZStL8__ioinit = internal global %"class.std::ios_base::Init" zeroinitializer, align 1
@__dso_handle = external hidden global i8
@_ZSt3cin = external dso_local global %"class.std::basic_istream", align 8
@_ZSt4cout = external dso_local global %"class.std::basic_ostream", align 8
@llvm.global_ctors = appending global [1 x { i32, void ()*, i8* }] [{ i32, void ()*, i8* } { i32 65535, void ()* @_GLOBAL__sub_I_616.cpp, i8* null }]

; Function Attrs: noinline uwtable
define internal void @__cxx_global_var_init() #0 section ".text.startup" {
  call void @_ZNSt8ios_base4InitC1Ev(%"class.std::ios_base::Init"* @_ZStL8__ioinit)
  %1 = call i32 @__cxa_atexit(void (i8*)* bitcast (void (%"class.std::ios_base::Init"*)* @_ZNSt8ios_base4InitD1Ev to void (i8*)*), i8* getelementptr inbounds (%"class.std::ios_base::Init", %"class.std::ios_base::Init"* @_ZStL8__ioinit, i32 0, i32 0), i8* @__dso_handle) #3
  ret void
}

declare dso_local void @_ZNSt8ios_base4InitC1Ev(%"class.std::ios_base::Init"*) unnamed_addr #1

; Function Attrs: nounwind
declare dso_local void @_ZNSt8ios_base4InitD1Ev(%"class.std::ios_base::Init"*) unnamed_addr #2

; Function Attrs: nounwind
declare dso_local i32 @__cxa_atexit(void (i8*)*, i8*, i8*) #3

; Function Attrs: noinline norecurse uwtable
define dso_local i32 @main() #4 {
  %1 = alloca i32, align 4
  %2 = alloca [505 x i8], align 16
  %3 = alloca i32, align 4
  %4 = alloca i32, align 4
  %5 = alloca i32, align 4
  %6 = alloca i32, align 4
  %7 = alloca i32, align 4
  %8 = alloca i32, align 4
  store i32 0, i32* %1, align 4
  %9 = getelementptr inbounds [505 x i8], [505 x i8]* %2, i64 0, i64 0
  %10 = call dereferenceable(280) %"class.std::basic_istream"* @_ZStrsIcSt11char_traitsIcEERSt13basic_istreamIT_T0_ES6_PS3_(%"class.std::basic_istream"* dereferenceable(280) @_ZSt3cin, i8* %9)
  %11 = getelementptr inbounds [505 x i8], [505 x i8]* %2, i64 0, i64 0
  %12 = call i64 @strlen(i8* %11) #6
  %13 = trunc i64 %12 to i32
  store i32 %13, i32* %5, align 4
  store i32 2, i32* %3, align 4
  br label %14

14:                                               ; preds = %84, %0
  %15 = load i32, i32* %3, align 4
  %16 = load i32, i32* %5, align 4
  %17 = icmp sle i32 %15, %16
  br i1 %17, label %18, label %87

18:                                               ; preds = %14
  store i32 0, i32* %4, align 4
  br label %19

19:                                               ; preds = %80, %18
  %20 = load i32, i32* %4, align 4
  %21 = load i32, i32* %5, align 4
  %22 = load i32, i32* %3, align 4
  %23 = sub nsw i32 %21, %22
  %24 = icmp sle i32 %20, %23
  br i1 %24, label %25, label %83

25:                                               ; preds = %19
  %26 = load i32, i32* %3, align 4
  %27 = sdiv i32 %26, 2
  store i32 %27, i32* %6, align 4
  store i32 0, i32* %7, align 4
  br label %28

28:                                               ; preds = %53, %25
  %29 = load i32, i32* %7, align 4
  %30 = load i32, i32* %6, align 4
  %31 = icmp slt i32 %29, %30
  br i1 %31, label %32, label %56

32:                                               ; preds = %28
  %33 = load i32, i32* %4, align 4
  %34 = load i32, i32* %7, align 4
  %35 = add nsw i32 %33, %34
  %36 = sext i32 %35 to i64
  %37 = getelementptr inbounds [505 x i8], [505 x i8]* %2, i64 0, i64 %36
  %38 = load i8, i8* %37, align 1
  %39 = sext i8 %38 to i32
  %40 = load i32, i32* %4, align 4
  %41 = load i32, i32* %3, align 4
  %42 = add nsw i32 %40, %41
  %43 = load i32, i32* %7, align 4
  %44 = sub nsw i32 %42, %43
  %45 = sub nsw i32 %44, 1
  %46 = sext i32 %45 to i64
  %47 = getelementptr inbounds [505 x i8], [505 x i8]* %2, i64 0, i64 %46
  %48 = load i8, i8* %47, align 1
  %49 = sext i8 %48 to i32
  %50 = icmp ne i32 %39, %49
  br i1 %50, label %51, label %52

51:                                               ; preds = %32
  br label %56

52:                                               ; preds = %32
  br label %53

53:                                               ; preds = %52
  %54 = load i32, i32* %7, align 4
  %55 = add nsw i32 %54, 1
  store i32 %55, i32* %7, align 4
  br label %28

56:                                               ; preds = %51, %28
  %57 = load i32, i32* %7, align 4
  %58 = load i32, i32* %6, align 4
  %59 = icmp sge i32 %57, %58
  br i1 %59, label %60, label %79

60:                                               ; preds = %56
  %61 = load i32, i32* %4, align 4
  store i32 %61, i32* %8, align 4
  br label %62

62:                                               ; preds = %74, %60
  %63 = load i32, i32* %8, align 4
  %64 = load i32, i32* %4, align 4
  %65 = load i32, i32* %3, align 4
  %66 = add nsw i32 %64, %65
  %67 = icmp slt i32 %63, %66
  br i1 %67, label %68, label %77

68:                                               ; preds = %62
  %69 = load i32, i32* %8, align 4
  %70 = sext i32 %69 to i64
  %71 = getelementptr inbounds [505 x i8], [505 x i8]* %2, i64 0, i64 %70
  %72 = load i8, i8* %71, align 1
  %73 = call dereferenceable(272) %"class.std::basic_ostream"* @_ZStlsISt11char_traitsIcEERSt13basic_ostreamIcT_ES5_c(%"class.std::basic_ostream"* dereferenceable(272) @_ZSt4cout, i8 signext %72)
  br label %74

74:                                               ; preds = %68
  %75 = load i32, i32* %8, align 4
  %76 = add nsw i32 %75, 1
  store i32 %76, i32* %8, align 4
  br label %62

77:                                               ; preds = %62
  %78 = call dereferenceable(272) %"class.std::basic_ostream"* @_ZNSolsEPFRSoS_E(%"class.std::basic_ostream"* @_ZSt4cout, %"class.std::basic_ostream"* (%"class.std::basic_ostream"*)* @_ZSt4endlIcSt11char_traitsIcEERSt13basic_ostreamIT_T0_ES6_)
  br label %79

79:                                               ; preds = %77, %56
  br label %80

80:                                               ; preds = %79
  %81 = load i32, i32* %4, align 4
  %82 = add nsw i32 %81, 1
  store i32 %82, i32* %4, align 4
  br label %19

83:                                               ; preds = %19
  br label %84

84:                                               ; preds = %83
  %85 = load i32, i32* %3, align 4
  %86 = add nsw i32 %85, 1
  store i32 %86, i32* %3, align 4
  br label %14

87:                                               ; preds = %14
  ret i32 0
}

declare dso_local dereferenceable(280) %"class.std::basic_istream"* @_ZStrsIcSt11char_traitsIcEERSt13basic_istreamIT_T0_ES6_PS3_(%"class.std::basic_istream"* dereferenceable(280), i8*) #1

; Function Attrs: nounwind readonly
declare dso_local i64 @strlen(i8*) #5

declare dso_local dereferenceable(272) %"class.std::basic_ostream"* @_ZStlsISt11char_traitsIcEERSt13basic_ostreamIcT_ES5_c(%"class.std::basic_ostream"* dereferenceable(272), i8 signext) #1

declare dso_local dereferenceable(272) %"class.std::basic_ostream"* @_ZNSolsEPFRSoS_E(%"class.std::basic_ostream"*, %"class.std::basic_ostream"* (%"class.std::basic_ostream"*)*) #1

declare dso_local dereferenceable(272) %"class.std::basic_ostream"* @_ZSt4endlIcSt11char_traitsIcEERSt13basic_ostreamIT_T0_ES6_(%"class.std::basic_ostream"* dereferenceable(272)) #1

; Function Attrs: noinline uwtable
define internal void @_GLOBAL__sub_I_616.cpp() #0 section ".text.startup" {
  call void @__cxx_global_var_init()
  ret void
}


!llvm.module.flags = !{!0}
!llvm.ident = !{!1}

!0 = !{i32 1, !"wchar_size", i32 4}
!1 = !{!"clang version 10.0.0-4ubuntu1 "}
